; Function Attrs: nounwind uwtable
define void @updataInfo(i32 noundef %0, i32 noundef %1, i32 noundef %2, ptr noundef %3, ptr noundef captures(none) %4) local_unnamed_addr #0 {
  %6 = load i32, ptr %4, align 4, !tbaa !6
  %7 = sub nsw i32 %0, %1
  %8 = tail call i32 @llvm.abs.i32(i32 %7, i1 true)
  %9 = shl i32 %8, 2
  %10 = add i32 %0, -4
  %11 = add i32 %10, %9
  %12 = tail call i32 @adjustInfoAfterSwap(ptr noundef %3, i32 noundef %6, i32 noundef %2, i32 noundef %11) #9
  store i32 %12, ptr %4, align 4, !tbaa !6
  ret void
}